; Function Attrs: nounwind uwtable
define ptr @initialize_Init_Data_Array_BinSearch(i8 noundef zeroext %0, ptr noundef readnone captures(none) %1) local_unnamed_addr #1 {
  %.b12 = load i1, ptr @_G_initialized, align 1
  br i1 %.b12, label %3, label %7

3:                                                ; preds = %2
  tail call void @lean_inc_heartbeat() #4
  %4 = tail call noalias ptr @mi_malloc_small(i64 noundef 24) #4
  %5 = icmp eq ptr %4, null
  br i1 %5, label %6, label %.sink.split

6:                                                ; preds = %3
  tail call void @lean_internal_panic_out_of_memory() #5
  unreachable

7:                                                ; preds = %2
  store i1 true, ptr @_G_initialized, align 1
  %8 = tail call ptr @initialize_Init_Data_Array_Basic(i8 noundef zeroext %0, ptr noundef nonnull inttoptr (i64 1 to ptr)) #4
  %9 = getelementptr i8, ptr %8, i64 4
  %.val = load i32, ptr %9, align 4
  %.mask.i = and i32 %.val, -16777216
  %10 = icmp eq i32 %.mask.i, 16777216
  br i1 %10, label %44, label %11

11:                                               ; preds = %7
  %12 = load i32, ptr %8, align 4, !tbaa !4
  %13 = icmp sgt i32 %12, 1
  br i1 %13, label %14, label %16, !prof !11

14:                                               ; preds = %11
  %15 = add nsw i32 %12, -1
  store i32 %15, ptr %8, align 4, !tbaa !4
  br label %lean_dec_ref.exit

16:                                               ; preds = %11
  %.not.i = icmp eq i32 %12, 0
  br i1 %.not.i, label %lean_dec_ref.exit, label %17

17:                                               ; preds = %16
  tail call void @lean_dec_ref_cold(ptr noundef nonnull %8) #4
  br label %lean_dec_ref.exit

lean_dec_ref.exit:                                ; preds = %14, %16, %17
  %18 = tail call ptr @initialize_Init_Data_Int_DivMod_Lemmas(i8 noundef zeroext %0, ptr noundef nonnull inttoptr (i64 1 to ptr)) #4
  %19 = getelementptr i8, ptr %18, i64 4
  %.val17 = load i32, ptr %19, align 4
  %.mask.i19 = and i32 %.val17, -16777216
  %20 = icmp eq i32 %.mask.i19, 16777216
  br i1 %20, label %44, label %21

21:                                               ; preds = %lean_dec_ref.exit
  %22 = load i32, ptr %18, align 4, !tbaa !4
  %23 = icmp sgt i32 %22, 1
  br i1 %23, label %24, label %26, !prof !11

24:                                               ; preds = %21
  %25 = add nsw i32 %22, -1
  store i32 %25, ptr %18, align 4, !tbaa !4
  br label %lean_dec_ref.exit14

26:                                               ; preds = %21
  %.not.i13 = icmp eq i32 %22, 0
  br i1 %.not.i13, label %lean_dec_ref.exit14, label %27

27:                                               ; preds = %26
  tail call void @lean_dec_ref_cold(ptr noundef nonnull %18) #4
  br label %lean_dec_ref.exit14

lean_dec_ref.exit14:                              ; preds = %24, %26, %27
  %28 = tail call ptr @initialize_Init_Omega(i8 noundef zeroext %0, ptr noundef nonnull inttoptr (i64 1 to ptr)) #4
  %29 = getelementptr i8, ptr %28, i64 4
  %.val18 = load i32, ptr %29, align 4
  %.mask.i20 = and i32 %.val18, -16777216
  %30 = icmp eq i32 %.mask.i20, 16777216
  br i1 %30, label %44, label %31

31:                                               ; preds = %lean_dec_ref.exit14
  %32 = load i32, ptr %28, align 4, !tbaa !4
  %33 = icmp sgt i32 %32, 1
  br i1 %33, label %34, label %36, !prof !11

34:                                               ; preds = %31
  %35 = add nsw i32 %32, -1
  store i32 %35, ptr %28, align 4, !tbaa !4
  br label %lean_dec_ref.exit16

36:                                               ; preds = %31
  %.not.i15 = icmp eq i32 %32, 0
  br i1 %.not.i15, label %lean_dec_ref.exit16, label %37

37:                                               ; preds = %36
  tail call void @lean_dec_ref_cold(ptr noundef nonnull %28) #4
  br label %lean_dec_ref.exit16

lean_dec_ref.exit16:                              ; preds = %34, %36, %37
  tail call void @lean_inc_heartbeat() #4
  %38 = tail call noalias ptr @mi_malloc_small(i64 noundef 24) #4
  %39 = icmp eq ptr %38, null
  br i1 %39, label %40, label %.sink.split

40:                                               ; preds = %lean_dec_ref.exit16
  tail call void @lean_internal_panic_out_of_memory() #5
  unreachable

.sink.split:                                      ; preds = %lean_dec_ref.exit16, %3
  %.sink25 = phi ptr [ %4, %3 ], [ %38, %lean_dec_ref.exit16 ]
  %41 = getelementptr inbounds nuw i8, ptr %.sink25, i64 4
  store i32 1, ptr %.sink25, align 4, !tbaa !4
  store i32 131096, ptr %41, align 4
  %42 = getelementptr inbounds nuw i8, ptr %.sink25, i64 8
  store ptr inttoptr (i64 1 to ptr), ptr %42, align 8, !tbaa !9
  %43 = getelementptr inbounds nuw i8, ptr %.sink25, i64 16
  store ptr inttoptr (i64 1 to ptr), ptr %43, align 8, !tbaa !9
  br label %44

44:                                               ; preds = %.sink.split, %lean_dec_ref.exit14, %lean_dec_ref.exit, %7
  %.0 = phi ptr [ %8, %7 ], [ %18, %lean_dec_ref.exit ], [ %28, %lean_dec_ref.exit14 ], [ %.sink25, %.sink.split ]
  ret ptr %.0
}